; Function Attrs: nounwind uwtable
define internal range(i64 0, 4294967296) i64 @ExecJustHashOuterVar(ptr noundef readonly captures(none) %0, ptr noundef readonly captures(none) %1, ptr noundef writeonly captures(none) initializes((0, 1)) %2) #0 {
  %4 = getelementptr inbounds nuw i8, ptr %1, i64 24
  %5 = load ptr, ptr %4, align 8
  %6 = getelementptr inbounds nuw i8, ptr %0, i64 24
  %7 = load ptr, ptr %6, align 8
  %8 = getelementptr inbounds nuw i8, ptr %7, i64 160
  %9 = load ptr, ptr %8, align 8
  %10 = getelementptr inbounds nuw i8, ptr %7, i64 88
  %11 = load i32, ptr %10, align 8
  %12 = getelementptr inbounds nuw i8, ptr %7, i64 24
  %13 = load i32, ptr %12, align 8
  %14 = getelementptr inbounds nuw i8, ptr %5, i64 6
  %15 = load i16, ptr %14, align 2
  %16 = sext i16 %15 to i32
  %17 = icmp sgt i32 %13, %16
  br i1 %17, label %18, label %slot_getsomeattrs.exit

18:                                               ; preds = %3
  tail call void @slot_getsomeattrs_int(ptr noundef nonnull %5, i32 noundef %13) #18
  br label %slot_getsomeattrs.exit

slot_getsomeattrs.exit:                           ; preds = %3, %18
  %19 = getelementptr inbounds nuw i8, ptr %5, i64 24
  %20 = load ptr, ptr %19, align 8
  %21 = sext i32 %11 to i64
  %22 = getelementptr inbounds i64, ptr %20, i64 %21
  %23 = load i64, ptr %22, align 8
  %24 = getelementptr inbounds nuw i8, ptr %9, i64 32
  store i64 %23, ptr %24, align 8
  %25 = getelementptr inbounds nuw i8, ptr %5, i64 32
  %26 = load ptr, ptr %25, align 8
  %27 = getelementptr inbounds i8, ptr %26, i64 %21
  %28 = load i8, ptr %27, align 1, !range !8, !noundef !9
  %29 = getelementptr inbounds nuw i8, ptr %9, i64 40
  store i8 %28, ptr %29, align 8
  store i8 0, ptr %2, align 1
  %30 = load i8, ptr %29, align 8, !range !8, !noundef !9
  %31 = trunc nuw i8 %30 to i1
  br i1 %31, label %ExecJustHashVarImpl.exit, label %32

32:                                               ; preds = %slot_getsomeattrs.exit
  %33 = getelementptr inbounds nuw i8, ptr %7, i64 168
  %34 = load ptr, ptr %33, align 8
  %35 = tail call i64 %34(ptr noundef nonnull %9) #18
  %36 = and i64 %35, 4294967295
  br label %ExecJustHashVarImpl.exit

ExecJustHashVarImpl.exit:                         ; preds = %slot_getsomeattrs.exit, %32
  %.0.i = phi i64 [ %36, %32 ], [ 0, %slot_getsomeattrs.exit ]
  ret i64 %.0.i
}